; Function Attrs: nounwind uwtable
define dso_local range(i32 -1, 1) i32 @PyFunction_SetAnnotations(ptr noundef captures(none) %0, ptr noundef %1) local_unnamed_addr #0 {
  %3 = getelementptr i8, ptr %0, i64 8
  %.val22 = load ptr, ptr %3, align 8, !tbaa !130
  %.not = icmp eq ptr %.val22, @PyFunction_Type
  br i1 %.not, label %5, label %4

4:                                                ; preds = %2
  tail call void @_PyErr_BadInternalCall(ptr noundef nonnull @.str.3, i32 noundef 606) #8
  br label %Py_DECREF.exit

5:                                                ; preds = %2
  %6 = icmp eq ptr %1, @_Py_NoneStruct
  br i1 %6, label %Py_INCREF.exit, label %7

7:                                                ; preds = %5
  %.not19 = icmp eq ptr %1, null
  br i1 %.not19, label %17, label %8

8:                                                ; preds = %7
  %9 = getelementptr i8, ptr %1, i64 8
  %.val = load ptr, ptr %9, align 8, !tbaa !130
  %10 = getelementptr i8, ptr %.val, i64 168
  %.val23 = load i64, ptr %10, align 8, !tbaa !131
  %11 = and i64 %.val23, 536870912
  %.not20 = icmp eq i64 %11, 0
  br i1 %.not20, label %17, label %12

12:                                               ; preds = %8
  %13 = load i32, ptr %1, align 8, !tbaa !99
  %14 = icmp slt i32 %13, 0
  br i1 %14, label %Py_INCREF.exit, label %15

15:                                               ; preds = %12
  %16 = add nuw i32 %13, 1
  store i32 %16, ptr %1, align 8, !tbaa !99
  br label %Py_INCREF.exit

17:                                               ; preds = %8, %7
  %18 = load ptr, ptr @PyExc_SystemError, align 8, !tbaa !96
  tail call void @PyErr_SetString(ptr noundef %18, ptr noundef nonnull @.str.7) #8
  br label %Py_DECREF.exit

Py_INCREF.exit:                                   ; preds = %15, %12, %5
  %.016 = phi ptr [ null, %5 ], [ %1, %12 ], [ %1, %15 ]
  %19 = getelementptr inbounds nuw i8, ptr %0, i64 112
  %20 = load ptr, ptr %19, align 8, !tbaa !96
  store ptr %.016, ptr %19, align 8, !tbaa !96
  %.not.i24 = icmp eq ptr %20, null
  br i1 %.not.i24, label %Py_XDECREF.exit, label %21

21:                                               ; preds = %Py_INCREF.exit
  %22 = load i32, ptr %20, align 8, !tbaa !99
  %.not.i.i = icmp sgt i32 %22, -1
  br i1 %.not.i.i, label %23, label %Py_XDECREF.exit

23:                                               ; preds = %21
  %24 = add nsw i32 %22, -1
  store i32 %24, ptr %20, align 8, !tbaa !99
  %25 = icmp eq i32 %24, 0
  br i1 %25, label %26, label %Py_XDECREF.exit

26:                                               ; preds = %23
  tail call void @_Py_Dealloc(ptr noundef nonnull %20) #8
  br label %Py_XDECREF.exit

Py_XDECREF.exit:                                  ; preds = %Py_INCREF.exit, %21, %23, %26
  %27 = getelementptr inbounds nuw i8, ptr %0, i64 120
  %28 = load ptr, ptr %27, align 8, !tbaa !96
  %.not21 = icmp eq ptr %28, null
  br i1 %.not21, label %Py_DECREF.exit, label %29

29:                                               ; preds = %Py_XDECREF.exit
  store ptr null, ptr %27, align 8, !tbaa !96
  %30 = load i32, ptr %28, align 8, !tbaa !99
  %.not.i = icmp sgt i32 %30, -1
  br i1 %.not.i, label %31, label %Py_DECREF.exit

31:                                               ; preds = %29
  %32 = add nsw i32 %30, -1
  store i32 %32, ptr %28, align 8, !tbaa !99
  %33 = icmp eq i32 %32, 0
  br i1 %33, label %34, label %Py_DECREF.exit

34:                                               ; preds = %31
  tail call void @_Py_Dealloc(ptr noundef nonnull %28) #8
  br label %Py_DECREF.exit

Py_DECREF.exit:                                   ; preds = %34, %31, %29, %Py_XDECREF.exit, %17, %4
  %.0 = phi i32 [ -1, %17 ], [ -1, %4 ], [ 0, %Py_XDECREF.exit ], [ 0, %29 ], [ 0, %31 ], [ 0, %34 ]
  ret i32 %.0
}